EXPORTS
	_ZN12CTtsHwDevice11SynthesizeLEv @ 1 NONAME
	_ZN12CTtsHwDevice12DeleteStyleLEm @ 2 NONAME
	_ZN12CTtsHwDevice12GetPositionLER11TTtsSegmentRi @ 3 NONAME
	_ZN12CTtsHwDevice12GetPositionLER25TTimeIntervalMicroSeconds @ 4 NONAME
	_ZN12CTtsHwDevice12SetPositionLERK11TTtsSegmenti @ 5 NONAME
	_ZN12CTtsHwDevice12SetPositionLERK25TTimeIntervalMicroSeconds @ 6 NONAME
	_ZN12CTtsHwDevice15AnalyzeProsodyLER14CTtsParsedText @ 7 NONAME
	_ZN12CTtsHwDevice15BufferProcessedERK6TDesC8 @ 8 NONAME
	_ZN12CTtsHwDevice15PrimeSynthesisLER14CTtsParsedText @ 9 NONAME
	_ZN12CTtsHwDevice15PrimeSynthesisLER17MTtsSegmentStream @ 10 NONAME
	_ZN12CTtsHwDevice17AnalyzeStructureLER14CTtsParsedText @ 11 NONAME
	_ZN12CTtsHwDevice19IsLanguageSupportedE9TLanguage @ 12 NONAME
	_ZN12CTtsHwDevice4NewLER20MTtsHwDeviceObserverjj @ 13 NONAME
	_ZN12CTtsHwDevice4StopEv @ 14 NONAME
	_ZN12CTtsHwDevice5PauseEv @ 15 NONAME
	_ZN12CTtsHwDevice6StyleLEm @ 16 NONAME
	_ZN12CTtsHwDevice6StyleLEt @ 17 NONAME
	_ZN12CTtsHwDevice9AddStyleLERK9TTtsStyle @ 18 NONAME
	_ZN12CTtsHwDeviceD0Ev @ 19 NONAME
	_ZN12CTtsHwDeviceD1Ev @ 20 NONAME
	_ZN12CTtsHwDeviceD2Ev @ 21 NONAME
	_ZN13CASRSHwDevice11InitializeLEv @ 22 NONAME
	_ZN13CASRSHwDevice15CustomInterfaceE4TUid @ 23 NONAME
	_ZN13CASRSHwDevice4NewLEv @ 24 NONAME
	_ZN13CASRSHwDevice5ClearEv @ 25 NONAME
	_ZN13CASRSHwDeviceD0Ev @ 26 NONAME
	_ZN13CASRSHwDeviceD1Ev @ 27 NONAME
	_ZN13CASRSHwDeviceD2Ev @ 28 NONAME
	_ZNK12CTtsHwDevice14NumberOfStylesEv @ 29 NONAME
	_ZTI12CTtsHwDevice @ 30 NONAME ; #<TI>#
	_ZTI13CASRSHwDevice @ 31 NONAME ; #<TI>#
	_ZTV12CTtsHwDevice @ 32 NONAME ; #<VT>#
	_ZTV13CASRSHwDevice @ 33 NONAME ; #<VT>#

