EXPORTS
	??1CASRSHwDevice@@UAE@XZ @ 1 NONAME ; CASRSHwDevice::~CASRSHwDevice(void)
	??1CTtsHwDevice@@UAE@XZ @ 2 NONAME ; CTtsHwDevice::~CTtsHwDevice(void)
	?AddStyleL@CTtsHwDevice@@QAEKABVTTtsStyle@@@Z @ 3 NONAME ; unsigned long CTtsHwDevice::AddStyleL(class TTtsStyle const &)
	?AnalyzeProsodyL@CTtsHwDevice@@QAEXAAVCTtsParsedText@@@Z @ 4 NONAME ; void CTtsHwDevice::AnalyzeProsodyL(class CTtsParsedText &)
	?AnalyzeStructureL@CTtsHwDevice@@QAEXAAVCTtsParsedText@@@Z @ 5 NONAME ; void CTtsHwDevice::AnalyzeStructureL(class CTtsParsedText &)
	?BufferProcessed@CTtsHwDevice@@QAEXABVTDesC8@@@Z @ 6 NONAME ; void CTtsHwDevice::BufferProcessed(class TDesC8 const &)
	?Clear@CASRSHwDevice@@UAEXXZ @ 7 NONAME ; void CASRSHwDevice::Clear(void)
	?CustomInterface@CASRSHwDevice@@UAEPAXVTUid@@@Z @ 8 NONAME ; void * CASRSHwDevice::CustomInterface(class TUid)
	?DeleteStyleL@CTtsHwDevice@@QAEXK@Z @ 9 NONAME ; void CTtsHwDevice::DeleteStyleL(unsigned long)
	?GetPositionL@CTtsHwDevice@@QAEXAAVTTimeIntervalMicroSeconds@@@Z @ 10 NONAME ; void CTtsHwDevice::GetPositionL(class TTimeIntervalMicroSeconds &)
	?GetPositionL@CTtsHwDevice@@QAEXAAVTTtsSegment@@AAH@Z @ 11 NONAME ; void CTtsHwDevice::GetPositionL(class TTtsSegment &, int &)
	?InitializeL@CASRSHwDevice@@UAEXXZ @ 12 NONAME ; void CASRSHwDevice::InitializeL(void)
	?IsLanguageSupported@CTtsHwDevice@@QAEHW4TLanguage@@@Z @ 13 NONAME ; int CTtsHwDevice::IsLanguageSupported(enum TLanguage)
	?NewL@CASRSHwDevice@@SAPAV1@XZ @ 14 NONAME ; class CASRSHwDevice * CASRSHwDevice::NewL(void)
	?NewL@CTtsHwDevice@@SAPAV1@AAVMTtsHwDeviceObserver@@II@Z @ 15 NONAME ; class CTtsHwDevice * CTtsHwDevice::NewL(class MTtsHwDeviceObserver &, unsigned int, unsigned int)
	?NumberOfStyles@CTtsHwDevice@@QBEGXZ @ 16 NONAME ; unsigned short CTtsHwDevice::NumberOfStyles(void) const
	?Pause@CTtsHwDevice@@QAEXXZ @ 17 NONAME ; void CTtsHwDevice::Pause(void)
	?PrimeSynthesisL@CTtsHwDevice@@QAEXAAVCTtsParsedText@@@Z @ 18 NONAME ; void CTtsHwDevice::PrimeSynthesisL(class CTtsParsedText &)
	?PrimeSynthesisL@CTtsHwDevice@@QAEXAAVMTtsSegmentStream@@@Z @ 19 NONAME ; void CTtsHwDevice::PrimeSynthesisL(class MTtsSegmentStream &)
	?SetPositionL@CTtsHwDevice@@QAEXABVTTimeIntervalMicroSeconds@@@Z @ 20 NONAME ; void CTtsHwDevice::SetPositionL(class TTimeIntervalMicroSeconds const &)
	?SetPositionL@CTtsHwDevice@@QAEXABVTTtsSegment@@H@Z @ 21 NONAME ; void CTtsHwDevice::SetPositionL(class TTtsSegment const &, int)
	?Stop@CTtsHwDevice@@QAEXXZ @ 22 NONAME ; void CTtsHwDevice::Stop(void)
	?StyleL@CTtsHwDevice@@QAEAAVTTtsStyle@@G@Z @ 23 NONAME ; class TTtsStyle & CTtsHwDevice::StyleL(unsigned short)
	?StyleL@CTtsHwDevice@@QAEAAVTTtsStyle@@K@Z @ 24 NONAME ; class TTtsStyle & CTtsHwDevice::StyleL(unsigned long)
	?SynthesizeL@CTtsHwDevice@@QAEXXZ @ 25 NONAME ; void CTtsHwDevice::SynthesizeL(void)

